target datalayout = "e-m:e-p270:32:32-p271:32:32-p272:64:64-i64:64-i128:128-f80:128-n8:16:32:64-S128"
target triple = "x86_64-pc-linux-gnu"

%struct.lexbor_str_t = type { ptr, i64 }

; Function Attrs: nounwind uwtable
define hidden void @lexbor_str_stay_only_whitespace(ptr noundef %0) #0 {
  %2 = alloca ptr, align 8
  %3 = alloca i64, align 8
  %4 = alloca i64, align 8
  %5 = alloca ptr, align 8
  store ptr %0, ptr %2, align 8
  store i64 0, ptr %4, align 8
  %6 = load ptr, ptr %2, align 8
  %7 = getelementptr inbounds %struct.lexbor_str_t, ptr %6, i32 0, i32 0
  %8 = load ptr, ptr %7, align 8
  store ptr %8, ptr %5, align 8
  store i64 0, ptr %3, align 8
  br label %9

9:                                                ; preds = %61, %1
  %10 = load i64, ptr %3, align 8
  %11 = load ptr, ptr %2, align 8
  %12 = getelementptr inbounds %struct.lexbor_str_t, ptr %11, i32 0, i32 1
  %13 = load i64, ptr %12, align 8
  %14 = icmp ult i64 %10, %13
  br i1 %14, label %15, label %64

15:                                               ; preds = %9
  %16 = load ptr, ptr %5, align 8
  %17 = load i64, ptr %3, align 8
  %18 = getelementptr inbounds i8, ptr %16, i64 %17
  %19 = load i8, ptr %18, align 1
  %20 = zext i8 %19 to i32
  %21 = icmp eq i32 %20, 32
  br i1 %21, label %50, label %22

22:                                               ; preds = %15
  %23 = load ptr, ptr %5, align 8
  %24 = load i64, ptr %3, align 8
  %25 = getelementptr inbounds i8, ptr %23, i64 %24
  %26 = load i8, ptr %25, align 1
  %27 = zext i8 %26 to i32
  %28 = icmp eq i32 %27, 9
  br i1 %28, label %50, label %29

29:                                               ; preds = %22
  %30 = load ptr, ptr %5, align 8
  %31 = load i64, ptr %3, align 8
  %32 = getelementptr inbounds i8, ptr %30, i64 %31
  %33 = load i8, ptr %32, align 1
  %34 = zext i8 %33 to i32
  %35 = icmp eq i32 %34, 10
  br i1 %35, label %50, label %36

36:                                               ; preds = %29
  %37 = load ptr, ptr %5, align 8
  %38 = load i64, ptr %3, align 8
  %39 = getelementptr inbounds i8, ptr %37, i64 %38
  %40 = load i8, ptr %39, align 1
  %41 = zext i8 %40 to i32
  %42 = icmp eq i32 %41, 12
  br i1 %42, label %50, label %43

43:                                               ; preds = %36
  %44 = load ptr, ptr %5, align 8
  %45 = load i64, ptr %3, align 8
  %46 = getelementptr inbounds i8, ptr %44, i64 %45
  %47 = load i8, ptr %46, align 1
  %48 = zext i8 %47 to i32
  %49 = icmp eq i32 %48, 13
  br i1 %49, label %50, label %60

50:                                               ; preds = %43, %36, %29, %22, %15
  %51 = load ptr, ptr %5, align 8
  %52 = load i64, ptr %3, align 8
  %53 = getelementptr inbounds i8, ptr %51, i64 %52
  %54 = load i8, ptr %53, align 1
  %55 = load ptr, ptr %5, align 8
  %56 = load i64, ptr %4, align 8
  %57 = getelementptr inbounds i8, ptr %55, i64 %56
  store i8 %54, ptr %57, align 1
  %58 = load i64, ptr %4, align 8
  %59 = add i64 %58, 1
  store i64 %59, ptr %4, align 8
  br label %60

60:                                               ; preds = %50, %43
  br label %61

61:                                               ; preds = %60
  %62 = load i64, ptr %3, align 8
  %63 = add i64 %62, 1
  store i64 %63, ptr %3, align 8
  br label %9

64:                                               ; preds = %9
  %65 = load i64, ptr %4, align 8
  %66 = load ptr, ptr %2, align 8
  %67 = getelementptr inbounds %struct.lexbor_str_t, ptr %66, i32 0, i32 1
  store i64 %65, ptr %67, align 8
  ret void
}