; Function Attrs: nofree norecurse nosync nounwind memory(readwrite, inaccessiblemem: none) uwtable
define hidden void @lexbor_str_stay_only_whitespace(ptr nocapture noundef %0) local_unnamed_addr #6 {
  %2 = load ptr, ptr %0, align 8
  %3 = getelementptr inbounds i8, ptr %0, i64 8
  %4 = load i64, ptr %3, align 8
  %.not = icmp eq i64 %4, 0
  br i1 %.not, label %._crit_edge, label %.lr.ph

.lr.ph:                                           ; preds = %1, %11
  %5 = phi i64 [ %12, %11 ], [ %4, %1 ]
  %.023 = phi i64 [ %13, %11 ], [ 0, %1 ]
  %.02022 = phi i64 [ %.1, %11 ], [ 0, %1 ]
  %6 = getelementptr inbounds i8, ptr %2, i64 %.023
  %7 = load i8, ptr %6, align 1
  switch i8 %7, label %11 [
    i8 32, label %8
    i8 9, label %8
    i8 10, label %8
    i8 12, label %8
    i8 13, label %8
  ]

8:                                                ; preds = %.lr.ph, %.lr.ph, %.lr.ph, %.lr.ph, %.lr.ph
  %9 = getelementptr inbounds i8, ptr %2, i64 %.02022
  store i8 %7, ptr %9, align 1
  %10 = add i64 %.02022, 1
  %.pre = load i64, ptr %3, align 8
  br label %11

11:                                               ; preds = %.lr.ph, %8
  %12 = phi i64 [ %.pre, %8 ], [ %5, %.lr.ph ]
  %.1 = phi i64 [ %10, %8 ], [ %.02022, %.lr.ph ]
  %13 = add nuw i64 %.023, 1
  %14 = icmp ult i64 %13, %12
  br i1 %14, label %.lr.ph, label %._crit_edge

._crit_edge:                                      ; preds = %11, %1
  %.020.lcssa = phi i64 [ 0, %1 ], [ %.1, %11 ]
  store i64 %.020.lcssa, ptr %3, align 8
  ret void
}